; Function Attrs: mustprogress uwtable
define { i64, ptr } @_ZN3nix10baseNameOfESt17basic_string_viewIcSt11char_traitsIcEE(i64 %0, ptr %1) local_unnamed_addr #2 {
  %3 = icmp eq i64 %0, 0
  br i1 %3, label %24, label %.preheader

.preheader:                                       ; preds = %2
  %4 = add i64 %0, -1
  %5 = getelementptr inbounds i8, ptr %1, i64 %4
  %6 = load i8, ptr %5, align 1
  %7 = icmp eq i8 %6, 47
  %8 = icmp ne i64 %4, 0
  %or.cond = and i1 %8, %7
  %9 = add i64 %0, -2
  %spec.select = select i1 %or.cond, i64 %9, i64 %4
  %10 = icmp ugt i64 %4, %spec.select
  %11 = add i64 %spec.select, 1
  %spec.select25 = select i1 %10, i64 %11, i64 %0
  br label %12

12:                                               ; preds = %.preheader, %13
  %.1.i = phi i64 [ %14, %13 ], [ %spec.select25, %.preheader ]
  %.not13.i = icmp eq i64 %.1.i, 0
  br i1 %.not13.i, label %_ZNKSt17basic_string_viewIcSt11char_traitsIcEE6substrEmm.exit, label %13

13:                                               ; preds = %12
  %14 = add i64 %.1.i, -1
  %15 = getelementptr inbounds i8, ptr %1, i64 %14
  %16 = load i8, ptr %15, align 1
  %17 = icmp eq i8 %16, 47
  br i1 %17, label %18, label %12, !llvm.loop !15

18:                                               ; preds = %13
  %19 = icmp ugt i64 %.1.i, %0
  br i1 %19, label %21, label %._ZNKSt17basic_string_viewIcSt11char_traitsIcEE6substrEmm.exit_crit_edge

._ZNKSt17basic_string_viewIcSt11char_traitsIcEE6substrEmm.exit_crit_edge: ; preds = %18
  %20 = sub i64 %spec.select, %.1.i
  %.pre = add i64 %20, 1
  br label %_ZNKSt17basic_string_viewIcSt11char_traitsIcEE6substrEmm.exit

21:                                               ; preds = %18
  tail call void (ptr, ...) @_ZSt24__throw_out_of_range_fmtPKcz(ptr noundef nonnull @.str.48, ptr noundef nonnull @.str.47, i64 noundef %.1.i, i64 noundef %0) #32
  unreachable

_ZNKSt17basic_string_viewIcSt11char_traitsIcEE6substrEmm.exit: ; preds = %12, %._ZNKSt17basic_string_viewIcSt11char_traitsIcEE6substrEmm.exit_crit_edge
  %.pre-phi = phi i64 [ %.pre, %._ZNKSt17basic_string_viewIcSt11char_traitsIcEE6substrEmm.exit_crit_edge ], [ %11, %12 ]
  %22 = sub i64 %0, %.1.i
  %.sroa.speculated.i = tail call i64 @llvm.umin.i64(i64 %22, i64 %.pre-phi)
  %23 = getelementptr inbounds i8, ptr %1, i64 %.1.i
  br label %24

24:                                               ; preds = %2, %_ZNKSt17basic_string_viewIcSt11char_traitsIcEE6substrEmm.exit
  %.sroa.018.0 = phi i64 [ %.sroa.speculated.i, %_ZNKSt17basic_string_viewIcSt11char_traitsIcEE6substrEmm.exit ], [ 0, %2 ]
  %.sroa.3.0 = phi ptr [ %23, %_ZNKSt17basic_string_viewIcSt11char_traitsIcEE6substrEmm.exit ], [ @.str.6, %2 ]
  %.fca.0.insert = insertvalue { i64, ptr } poison, i64 %.sroa.018.0, 0
  %.fca.1.insert = insertvalue { i64, ptr } %.fca.0.insert, ptr %.sroa.3.0, 1
  ret { i64, ptr } %.fca.1.insert
}